; ModuleID = '29/584.c'
source_filename = "29/584.c"
target datalayout = "e-m:e-p270:32:32-p271:32:32-p272:64:64-i64:64-f80:128-n8:16:32:64-S128"
target triple = "x86_64-pc-linux-gnu"

@.str = private unnamed_addr constant [3 x i8] c"%d\00", align 1
@.str.1 = private unnamed_addr constant [7 x i8] c"%.3lf\0A\00", align 1

; Function Attrs: noinline nounwind uwtable
define dso_local i32 @main() #0 {
  %1 = alloca i32, align 4
  %2 = alloca i32, align 4
  %3 = alloca i32, align 4
  %4 = alloca i32, align 4
  %5 = alloca [100 x i32], align 16
  %6 = alloca i32, align 4
  %7 = alloca i32, align 4
  %8 = alloca double, align 8
  %9 = alloca i32, align 4
  %10 = alloca double, align 8
  store i32 0, i32* %1, align 4
  %11 = call i32 (i8*, ...) @__isoc99_scanf(i8* getelementptr inbounds ([3 x i8], [3 x i8]* @.str, i64 0, i64 0), i32* %2)
  store i32 1, i32* %4, align 4
  br label %12

12:                                               ; preds = %21, %0
  %13 = load i32, i32* %4, align 4
  %14 = load i32, i32* %2, align 4
  %15 = icmp sle i32 %13, %14
  br i1 %15, label %16, label %24

16:                                               ; preds = %12
  %17 = load i32, i32* %4, align 4
  %18 = sext i32 %17 to i64
  %19 = getelementptr inbounds [100 x i32], [100 x i32]* %5, i64 0, i64 %18
  %20 = call i32 (i8*, ...) @__isoc99_scanf(i8* getelementptr inbounds ([3 x i8], [3 x i8]* @.str, i64 0, i64 0), i32* %19)
  br label %21

21:                                               ; preds = %16
  %22 = load i32, i32* %4, align 4
  %23 = add nsw i32 %22, 1
  store i32 %23, i32* %4, align 4
  br label %12

24:                                               ; preds = %12
  store i32 1, i32* %4, align 4
  br label %25

25:                                               ; preds = %62, %24
  %26 = load i32, i32* %4, align 4
  %27 = load i32, i32* %2, align 4
  %28 = icmp sle i32 %26, %27
  br i1 %28, label %29, label %65

29:                                               ; preds = %25
  store i32 2, i32* %6, align 4
  store i32 1, i32* %7, align 4
  %30 = load i32, i32* %6, align 4
  %31 = sitofp i32 %30 to double
  %32 = load i32, i32* %7, align 4
  %33 = sitofp i32 %32 to double
  %34 = fdiv double %31, %33
  store double %34, double* %8, align 8
  store i32 1, i32* %3, align 4
  br label %35

35:                                               ; preds = %56, %29
  %36 = load i32, i32* %3, align 4
  %37 = load i32, i32* %4, align 4
  %38 = sext i32 %37 to i64
  %39 = getelementptr inbounds [100 x i32], [100 x i32]* %5, i64 0, i64 %38
  %40 = load i32, i32* %39, align 4
  %41 = icmp slt i32 %36, %40
  br i1 %41, label %42, label %59

42:                                               ; preds = %35
  %43 = load i32, i32* %6, align 4
  %44 = load i32, i32* %7, align 4
  %45 = add nsw i32 %43, %44
  store i32 %45, i32* %9, align 4
  %46 = load i32, i32* %6, align 4
  store i32 %46, i32* %7, align 4
  %47 = load i32, i32* %9, align 4
  store i32 %47, i32* %6, align 4
  %48 = load i32, i32* %6, align 4
  %49 = sitofp i32 %48 to double
  %50 = load i32, i32* %7, align 4
  %51 = sitofp i32 %50 to double
  %52 = fdiv double %49, %51
  store double %52, double* %10, align 8
  %53 = load double, double* %8, align 8
  %54 = load double, double* %10, align 8
  %55 = fadd double %53, %54
  store double %55, double* %8, align 8
  br label %56

56:                                               ; preds = %42
  %57 = load i32, i32* %3, align 4
  %58 = add nsw i32 %57, 1
  store i32 %58, i32* %3, align 4
  br label %35

59:                                               ; preds = %35
  %60 = load double, double* %8, align 8
  %61 = call i32 (i8*, ...) @printf(i8* getelementptr inbounds ([7 x i8], [7 x i8]* @.str.1, i64 0, i64 0), double %60)
  br label %62

62:                                               ; preds = %59
  %63 = load i32, i32* %4, align 4
  %64 = add nsw i32 %63, 1
  store i32 %64, i32* %4, align 4
  br label %25

65:                                               ; preds = %25
  ret i32 0
}

declare dso_local i32 @__isoc99_scanf(i8*, ...) #1

declare dso_local i32 @printf(i8*, ...) #1


!llvm.module.flags = !{!0}
!llvm.ident = !{!1}

!0 = !{i32 1, !"wchar_size", i32 4}
!1 = !{!"clang version 10.0.0-4ubuntu1 "}
